target datalayout = "e-m:e-p270:32:32-p271:32:32-p272:64:64-i64:64-i128:128-f80:128-n8:16:32:64-S128"
target triple = "x86_64-pc-linux-gnu"

; Function Attrs: nounwind uwtable
define internal void @sbr_hf_gen_c(ptr noundef %0, ptr noundef %1, ptr noundef %2, ptr noundef %3, float noundef %4, i32 noundef %5, i32 noundef %6) #1 {
  %8 = alloca ptr, align 8
  %9 = alloca ptr, align 8
  %10 = alloca ptr, align 8
  %11 = alloca ptr, align 8
  %12 = alloca float, align 4
  %13 = alloca i32, align 4
  %14 = alloca i32, align 4
  %15 = alloca [4 x float], align 16
  %16 = alloca i32, align 4
  store ptr %0, ptr %8, align 8, !tbaa !21
  store ptr %1, ptr %9, align 8, !tbaa !21
  store ptr %2, ptr %10, align 8, !tbaa !21
  store ptr %3, ptr %11, align 8, !tbaa !21
  store float %4, ptr %12, align 4, !tbaa !25
  store i32 %5, ptr %13, align 4, !tbaa !23
  store i32 %6, ptr %14, align 4, !tbaa !23
  call void @llvm.lifetime.start.p0(i64 16, ptr %15) #5
  call void @llvm.lifetime.start.p0(i64 4, ptr %16) #5
  %17 = load ptr, ptr %11, align 8, !tbaa !21
  %18 = getelementptr inbounds float, ptr %17, i64 0
  %19 = load float, ptr %18, align 4, !tbaa !25
  %20 = load float, ptr %12, align 4, !tbaa !25
  %21 = fmul nsz float %19, %20
  %22 = load float, ptr %12, align 4, !tbaa !25
  %23 = fmul nsz float %21, %22
  %24 = getelementptr inbounds [4 x float], ptr %15, i64 0, i64 0
  store float %23, ptr %24, align 16, !tbaa !25
  %25 = load ptr, ptr %11, align 8, !tbaa !21
  %26 = getelementptr inbounds float, ptr %25, i64 1
  %27 = load float, ptr %26, align 4, !tbaa !25
  %28 = load float, ptr %12, align 4, !tbaa !25
  %29 = fmul nsz float %27, %28
  %30 = load float, ptr %12, align 4, !tbaa !25
  %31 = fmul nsz float %29, %30
  %32 = getelementptr inbounds [4 x float], ptr %15, i64 0, i64 1
  store float %31, ptr %32, align 4, !tbaa !25
  %33 = load ptr, ptr %10, align 8, !tbaa !21
  %34 = getelementptr inbounds float, ptr %33, i64 0
  %35 = load float, ptr %34, align 4, !tbaa !25
  %36 = load float, ptr %12, align 4, !tbaa !25
  %37 = fmul nsz float %35, %36
  %38 = getelementptr inbounds [4 x float], ptr %15, i64 0, i64 2
  store float %37, ptr %38, align 8, !tbaa !25
  %39 = load ptr, ptr %10, align 8, !tbaa !21
  %40 = getelementptr inbounds float, ptr %39, i64 1
  %41 = load float, ptr %40, align 4, !tbaa !25
  %42 = load float, ptr %12, align 4, !tbaa !25
  %43 = fmul nsz float %41, %42
  %44 = getelementptr inbounds [4 x float], ptr %15, i64 0, i64 3
  store float %43, ptr %44, align 4, !tbaa !25
  %45 = load i32, ptr %13, align 4, !tbaa !23
  store i32 %45, ptr %16, align 4, !tbaa !23
  br label %46

46:                                               ; preds = %157, %7
  %47 = load i32, ptr %16, align 4, !tbaa !23
  %48 = load i32, ptr %14, align 4, !tbaa !23
  %49 = icmp slt i32 %47, %48
  br i1 %49, label %50, label %160

50:                                               ; preds = %46
  %51 = load ptr, ptr %9, align 8, !tbaa !21
  %52 = load i32, ptr %16, align 4, !tbaa !23
  %53 = sub nsw i32 %52, 2
  %54 = sext i32 %53 to i64
  %55 = getelementptr inbounds [2 x float], ptr %51, i64 %54
  %56 = getelementptr inbounds [2 x float], ptr %55, i64 0, i64 0
  %57 = load float, ptr %56, align 4, !tbaa !25
  %58 = getelementptr inbounds [4 x float], ptr %15, i64 0, i64 0
  %59 = load float, ptr %58, align 16, !tbaa !25
  %60 = load ptr, ptr %9, align 8, !tbaa !21
  %61 = load i32, ptr %16, align 4, !tbaa !23
  %62 = sub nsw i32 %61, 2
  %63 = sext i32 %62 to i64
  %64 = getelementptr inbounds [2 x float], ptr %60, i64 %63
  %65 = getelementptr inbounds [2 x float], ptr %64, i64 0, i64 1
  %66 = load float, ptr %65, align 4, !tbaa !25
  %67 = getelementptr inbounds [4 x float], ptr %15, i64 0, i64 1
  %68 = load float, ptr %67, align 4, !tbaa !25
  %69 = fmul nsz float %66, %68
  %70 = fneg nsz float %69
  %71 = call nsz float @llvm.fmuladd.f32(float %57, float %59, float %70)
  %72 = load ptr, ptr %9, align 8, !tbaa !21
  %73 = load i32, ptr %16, align 4, !tbaa !23
  %74 = sub nsw i32 %73, 1
  %75 = sext i32 %74 to i64
  %76 = getelementptr inbounds [2 x float], ptr %72, i64 %75
  %77 = getelementptr inbounds [2 x float], ptr %76, i64 0, i64 0
  %78 = load float, ptr %77, align 4, !tbaa !25
  %79 = getelementptr inbounds [4 x float], ptr %15, i64 0, i64 2
  %80 = load float, ptr %79, align 8, !tbaa !25
  %81 = call nsz float @llvm.fmuladd.f32(float %78, float %80, float %71)
  %82 = load ptr, ptr %9, align 8, !tbaa !21
  %83 = load i32, ptr %16, align 4, !tbaa !23
  %84 = sub nsw i32 %83, 1
  %85 = sext i32 %84 to i64
  %86 = getelementptr inbounds [2 x float], ptr %82, i64 %85
  %87 = getelementptr inbounds [2 x float], ptr %86, i64 0, i64 1
  %88 = load float, ptr %87, align 4, !tbaa !25
  %89 = getelementptr inbounds [4 x float], ptr %15, i64 0, i64 3
  %90 = load float, ptr %89, align 4, !tbaa !25
  %91 = fneg nsz float %88
  %92 = call nsz float @llvm.fmuladd.f32(float %91, float %90, float %81)
  %93 = load ptr, ptr %9, align 8, !tbaa !21
  %94 = load i32, ptr %16, align 4, !tbaa !23
  %95 = sext i32 %94 to i64
  %96 = getelementptr inbounds [2 x float], ptr %93, i64 %95
  %97 = getelementptr inbounds [2 x float], ptr %96, i64 0, i64 0
  %98 = load float, ptr %97, align 4, !tbaa !25
  %99 = fadd nsz float %92, %98
  %100 = load ptr, ptr %8, align 8, !tbaa !21
  %101 = load i32, ptr %16, align 4, !tbaa !23
  %102 = sext i32 %101 to i64
  %103 = getelementptr inbounds [2 x float], ptr %100, i64 %102
  %104 = getelementptr inbounds [2 x float], ptr %103, i64 0, i64 0
  store float %99, ptr %104, align 4, !tbaa !25
  %105 = load ptr, ptr %9, align 8, !tbaa !21
  %106 = load i32, ptr %16, align 4, !tbaa !23
  %107 = sub nsw i32 %106, 2
  %108 = sext i32 %107 to i64
  %109 = getelementptr inbounds [2 x float], ptr %105, i64 %108
  %110 = getelementptr inbounds [2 x float], ptr %109, i64 0, i64 1
  %111 = load float, ptr %110, align 4, !tbaa !25
  %112 = getelementptr inbounds [4 x float], ptr %15, i64 0, i64 0
  %113 = load float, ptr %112, align 16, !tbaa !25
  %114 = load ptr, ptr %9, align 8, !tbaa !21
  %115 = load i32, ptr %16, align 4, !tbaa !23
  %116 = sub nsw i32 %115, 2
  %117 = sext i32 %116 to i64
  %118 = getelementptr inbounds [2 x float], ptr %114, i64 %117
  %119 = getelementptr inbounds [2 x float], ptr %118, i64 0, i64 0
  %120 = load float, ptr %119, align 4, !tbaa !25
  %121 = getelementptr inbounds [4 x float], ptr %15, i64 0, i64 1
  %122 = load float, ptr %121, align 4, !tbaa !25
  %123 = fmul nsz float %120, %122
  %124 = call nsz float @llvm.fmuladd.f32(float %111, float %113, float %123)
  %125 = load ptr, ptr %9, align 8, !tbaa !21
  %126 = load i32, ptr %16, align 4, !tbaa !23
  %127 = sub nsw i32 %126, 1
  %128 = sext i32 %127 to i64
  %129 = getelementptr inbounds [2 x float], ptr %125, i64 %128
  %130 = getelementptr inbounds [2 x float], ptr %129, i64 0, i64 1
  %131 = load float, ptr %130, align 4, !tbaa !25
  %132 = getelementptr inbounds [4 x float], ptr %15, i64 0, i64 2
  %133 = load float, ptr %132, align 8, !tbaa !25
  %134 = call nsz float @llvm.fmuladd.f32(float %131, float %133, float %124)
  %135 = load ptr, ptr %9, align 8, !tbaa !21
  %136 = load i32, ptr %16, align 4, !tbaa !23
  %137 = sub nsw i32 %136, 1
  %138 = sext i32 %137 to i64
  %139 = getelementptr inbounds [2 x float], ptr %135, i64 %138
  %140 = getelementptr inbounds [2 x float], ptr %139, i64 0, i64 0
  %141 = load float, ptr %140, align 4, !tbaa !25
  %142 = getelementptr inbounds [4 x float], ptr %15, i64 0, i64 3
  %143 = load float, ptr %142, align 4, !tbaa !25
  %144 = call nsz float @llvm.fmuladd.f32(float %141, float %143, float %134)
  %145 = load ptr, ptr %9, align 8, !tbaa !21
  %146 = load i32, ptr %16, align 4, !tbaa !23
  %147 = sext i32 %146 to i64
  %148 = getelementptr inbounds [2 x float], ptr %145, i64 %147
  %149 = getelementptr inbounds [2 x float], ptr %148, i64 0, i64 1
  %150 = load float, ptr %149, align 4, !tbaa !25
  %151 = fadd nsz float %144, %150
  %152 = load ptr, ptr %8, align 8, !tbaa !21
  %153 = load i32, ptr %16, align 4, !tbaa !23
  %154 = sext i32 %153 to i64
  %155 = getelementptr inbounds [2 x float], ptr %152, i64 %154
  %156 = getelementptr inbounds [2 x float], ptr %155, i64 0, i64 1
  store float %151, ptr %156, align 4, !tbaa !25
  br label %157

157:                                              ; preds = %50
  %158 = load i32, ptr %16, align 4, !tbaa !23
  %159 = add nsw i32 %158, 1
  store i32 %159, ptr %16, align 4, !tbaa !23
  br label %46, !llvm.loop !39

160:                                              ; preds = %46
  call void @llvm.lifetime.end.p0(i64 4, ptr %16) #5
  call void @llvm.lifetime.end.p0(i64 16, ptr %15) #5
  ret void
}