; Function Attrs: nofree norecurse nosync nounwind memory(argmem: readwrite) uwtable
define internal void @sbr_hf_gen_c(ptr noundef writeonly captures(none) %0, ptr noundef readonly captures(none) %1, ptr noundef readonly captures(none) %2, ptr noundef readonly captures(none) %3, float noundef %4, i32 noundef %5, i32 noundef %6) #1 {
  %8 = load float, ptr %3, align 4, !tbaa !19
  %9 = fmul nsz float %4, %8
  %10 = fmul nsz float %4, %9
  %11 = getelementptr inbounds nuw i8, ptr %3, i64 4
  %12 = load float, ptr %11, align 4, !tbaa !19
  %13 = fmul nsz float %4, %12
  %14 = fmul nsz float %4, %13
  %15 = load float, ptr %2, align 4, !tbaa !19
  %16 = fmul nsz float %4, %15
  %17 = getelementptr inbounds nuw i8, ptr %2, i64 4
  %18 = load float, ptr %17, align 4, !tbaa !19
  %19 = fmul nsz float %4, %18
  %20 = icmp slt i32 %5, %6
  br i1 %20, label %.lr.ph, label %._crit_edge

.lr.ph:                                           ; preds = %7
  %21 = fneg nsz float %14
  %22 = sext i32 %5 to i64
  %wide.trip.count = sext i32 %6 to i64
  br label %23

23:                                               ; preds = %.lr.ph, %23
  %indvars.iv = phi i64 [ %22, %.lr.ph ], [ %indvars.iv.next, %23 ]
  %24 = getelementptr [2 x float], ptr %1, i64 %indvars.iv
  %25 = getelementptr i8, ptr %24, i64 -16
  %26 = load float, ptr %25, align 4, !tbaa !19
  %27 = getelementptr i8, ptr %24, i64 -12
  %28 = load float, ptr %27, align 4, !tbaa !19
  %29 = fmul nsz float %28, %21
  %30 = tail call nsz float @llvm.fmuladd.f32(float %26, float %10, float %29)
  %31 = getelementptr i8, ptr %24, i64 -8
  %32 = load float, ptr %31, align 4, !tbaa !19
  %33 = tail call nsz float @llvm.fmuladd.f32(float %32, float %16, float %30)
  %34 = getelementptr i8, ptr %24, i64 -4
  %35 = load float, ptr %34, align 4, !tbaa !19
  %36 = fneg nsz float %35
  %37 = tail call nsz float @llvm.fmuladd.f32(float %36, float %19, float %33)
  %38 = load float, ptr %24, align 4, !tbaa !19
  %39 = fadd nsz float %38, %37
  %40 = getelementptr inbounds [2 x float], ptr %0, i64 %indvars.iv
  store float %39, ptr %40, align 4, !tbaa !19
  %41 = load float, ptr %27, align 4, !tbaa !19
  %42 = load float, ptr %25, align 4, !tbaa !19
  %43 = fmul nsz float %14, %42
  %44 = tail call nsz float @llvm.fmuladd.f32(float %41, float %10, float %43)
  %45 = load float, ptr %34, align 4, !tbaa !19
  %46 = tail call nsz float @llvm.fmuladd.f32(float %45, float %16, float %44)
  %47 = load float, ptr %31, align 4, !tbaa !19
  %48 = tail call nsz float @llvm.fmuladd.f32(float %47, float %19, float %46)
  %49 = getelementptr inbounds nuw i8, ptr %24, i64 4
  %50 = load float, ptr %49, align 4, !tbaa !19
  %51 = fadd nsz float %50, %48
  %52 = getelementptr inbounds nuw i8, ptr %40, i64 4
  store float %51, ptr %52, align 4, !tbaa !19
  %indvars.iv.next = add nsw i64 %indvars.iv, 1
  %exitcond.not = icmp eq i64 %indvars.iv.next, %wide.trip.count
  br i1 %exitcond.not, label %._crit_edge, label %23, !llvm.loop !31

._crit_edge:                                      ; preds = %23, %7
  ret void
}